target datalayout = "e-m:e-p270:32:32-p271:32:32-p272:64:64-i64:64-i128:128-f80:128-n8:16:32:64-S128"
target triple = "x86_64-pc-linux-gnu"

%"class.std::__cxx11::basic_string" = type { %"struct.std::__cxx11::basic_string<char>::_Alloc_hider", i64, %union.anon }
%"struct.std::__cxx11::basic_string<char>::_Alloc_hider" = type { ptr }
%union.anon = type { i64, [8 x i8] }
%"class.std::vector.10" = type { %"struct.std::_Vector_base.11" }
%"struct.std::_Vector_base.11" = type { %"struct.std::_Vector_base<gmx::BasicVector<double>, std::allocator<gmx::BasicVector<double>>>::_Vector_impl" }
%"struct.std::_Vector_base<gmx::BasicVector<double>, std::allocator<gmx::BasicVector<double>>>::_Vector_impl" = type { %"struct.std::_Vector_base<gmx::BasicVector<double>, std::allocator<gmx::BasicVector<double>>>::_Vector_impl_data" }
%"struct.std::_Vector_base<gmx::BasicVector<double>, std::allocator<gmx::BasicVector<double>>>::_Vector_impl_data" = type { ptr, ptr, ptr }
%"class.std::vector.15" = type { %"struct.std::_Vector_base.16" }
%"struct.std::_Vector_base.16" = type { %"struct.std::_Vector_base<double, std::allocator<double>>::_Vector_impl" }
%"struct.std::_Vector_base<double, std::allocator<double>>::_Vector_impl" = type { %"struct.std::_Vector_base<double, std::allocator<double>>::_Vector_impl_data" }
%"struct.std::_Vector_base<double, std::allocator<double>>::_Vector_impl_data" = type { ptr, ptr, ptr }
%struct.t_pull_coord = type { i32, %"class.std::__cxx11::basic_string", i32, %"class.std::__cxx11::basic_string", double, i32, %"struct.std::array", %"class.gmx::BasicVector.21", %"class.gmx::BasicVector.22", %"class.gmx::BasicVector.22", i8, float, float, float, float, i32 }
%"struct.std::array" = type { [6 x i32] }
%"class.gmx::BasicVector.21" = type { [3 x i32] }
%"class.gmx::BasicVector.22" = type { [3 x float] }
%struct.pull_coord_work_t = type { %struct.t_pull_coord, %"class.std::unique_ptr.23", double, %struct.PullCoordSpatialData, double, i8, %"class.gmx::PullCoordExpressionParser", %"class.std::vector.15" }
%"class.std::unique_ptr.23" = type { %"struct.std::__uniq_ptr_data.24" }
%"struct.std::__uniq_ptr_data.24" = type { %"class.std::__uniq_ptr_impl.25" }
%"class.std::__uniq_ptr_impl.25" = type { %"class.std::tuple.26" }
%"class.std::tuple.26" = type { %"struct.std::_Tuple_impl.27" }
%"struct.std::_Tuple_impl.27" = type { %"struct.std::_Head_base.30" }
%"struct.std::_Head_base.30" = type { ptr }
%struct.PullCoordSpatialData = type { [3 x double], [3 x double], [3 x double], [3 x double], double, [3 x double], double, [3 x double], [3 x double], double }
%"class.gmx::PullCoordExpressionParser" = type { %"class.std::__cxx11::basic_string", %"class.std::vector.15", %"class.std::unique_ptr.31" }
%"class.std::unique_ptr.31" = type { %"struct.std::__uniq_ptr_data.32" }
%"struct.std::__uniq_ptr_data.32" = type { %"class.std::__uniq_ptr_impl.33" }
%"class.std::__uniq_ptr_impl.33" = type { %"class.std::tuple.34" }
%"class.std::tuple.34" = type { %"struct.std::_Tuple_impl.35" }
%"struct.std::_Tuple_impl.35" = type { %"struct.std::_Head_base.38" }
%"struct.std::_Head_base.38" = type { ptr }
%struct.pull_t = type <{ %struct.pull_params_t, i8, i8, i8, i8, i32, i32, i8, [3 x i8], i32, i8, [3 x i8], %"class.std::vector.49", %"class.std::vector.54", i8, [7 x i8], %"class.std::vector.59", %struct.pull_comm_t, ptr, ptr, i8, i8, [6 x i8], ptr, i32, i32, i32, [4 x i8] }>
%struct.pull_params_t = type { i32, i32, float, float, i8, i8, i8, i8, i32, i32, i8, i8, %"class.std::vector.39", %"class.std::vector.44" }
%"class.std::vector.39" = type { %"struct.std::_Vector_base.40" }
%"struct.std::_Vector_base.40" = type { %"struct.std::_Vector_base<t_pull_group, std::allocator<t_pull_group>>::_Vector_impl" }
%"struct.std::_Vector_base<t_pull_group, std::allocator<t_pull_group>>::_Vector_impl" = type { %"struct.std::_Vector_base<t_pull_group, std::allocator<t_pull_group>>::_Vector_impl_data" }
%"struct.std::_Vector_base<t_pull_group, std::allocator<t_pull_group>>::_Vector_impl_data" = type { ptr, ptr, ptr }
%"class.std::vector.44" = type { %"struct.std::_Vector_base.45" }
%"struct.std::_Vector_base.45" = type { %"struct.std::_Vector_base<t_pull_coord, std::allocator<t_pull_coord>>::_Vector_impl" }
%"struct.std::_Vector_base<t_pull_coord, std::allocator<t_pull_coord>>::_Vector_impl" = type { %"struct.std::_Vector_base<t_pull_coord, std::allocator<t_pull_coord>>::_Vector_impl_data" }
%"struct.std::_Vector_base<t_pull_coord, std::allocator<t_pull_coord>>::_Vector_impl_data" = type { ptr, ptr, ptr }
%"class.std::vector.49" = type { %"struct.std::_Vector_base.50" }
%"struct.std::_Vector_base.50" = type { %"struct.std::_Vector_base<pull_group_work_t, std::allocator<pull_group_work_t>>::_Vector_impl" }
%"struct.std::_Vector_base<pull_group_work_t, std::allocator<pull_group_work_t>>::_Vector_impl" = type { %"struct.std::_Vector_base<pull_group_work_t, std::allocator<pull_group_work_t>>::_Vector_impl_data" }
%"struct.std::_Vector_base<pull_group_work_t, std::allocator<pull_group_work_t>>::_Vector_impl_data" = type { ptr, ptr, ptr }
%"class.std::vector.54" = type { %"struct.std::_Vector_base.55" }
%"struct.std::_Vector_base.55" = type { %"struct.std::_Vector_base<pull_coord_work_t, std::allocator<pull_coord_work_t>>::_Vector_impl" }
%"struct.std::_Vector_base<pull_coord_work_t, std::allocator<pull_coord_work_t>>::_Vector_impl" = type { %"struct.std::_Vector_base<pull_coord_work_t, std::allocator<pull_coord_work_t>>::_Vector_impl_data" }
%"struct.std::_Vector_base<pull_coord_work_t, std::allocator<pull_coord_work_t>>::_Vector_impl_data" = type { ptr, ptr, ptr }
%"class.std::vector.59" = type { %"struct.std::_Vector_base.60" }
%"struct.std::_Vector_base.60" = type { %"struct.std::_Vector_base<ComSums, std::allocator<ComSums>>::_Vector_impl" }
%"struct.std::_Vector_base<ComSums, std::allocator<ComSums>>::_Vector_impl" = type { %"struct.std::_Vector_base<ComSums, std::allocator<ComSums>>::_Vector_impl_data" }
%"struct.std::_Vector_base<ComSums, std::allocator<ComSums>>::_Vector_impl_data" = type { ptr, ptr, ptr }
%struct.pull_comm_t = type { i8, i8, ptr, i32, i8, i64, i64, %"class.std::vector.64", %"class.std::vector.10", %"class.std::vector.15" }
%"class.std::vector.64" = type { %"struct.std::_Vector_base.65" }
%"struct.std::_Vector_base.65" = type { %"struct.std::_Vector_base<gmx::BasicVector<float>, std::allocator<gmx::BasicVector<float>>>::_Vector_impl" }
%"struct.std::_Vector_base<gmx::BasicVector<float>, std::allocator<gmx::BasicVector<float>>>::_Vector_impl" = type { %"struct.std::_Vector_base<gmx::BasicVector<float>, std::allocator<gmx::BasicVector<float>>>::_Vector_impl_data" }
%"struct.std::_Vector_base<gmx::BasicVector<float>, std::allocator<gmx::BasicVector<float>>>::_Vector_impl_data" = type { ptr, ptr, ptr }

; Function Attrs: mustprogress nounwind uwtable
define linkonce_odr noundef nonnull align 8 dereferenceable(488) ptr @_ZNSt6vectorI17pull_coord_work_tSaIS0_EEixEm(ptr noundef nonnull align 8 dereferenceable(24) %0, i64 noundef %1) #5 comdat align 2 {
  %3 = alloca ptr, align 8
  %4 = alloca i64, align 8
  store ptr %0, ptr %3, align 8, !tbaa !239
  store i64 %1, ptr %4, align 8, !tbaa !19
  %5 = load ptr, ptr %3, align 8
  %6 = getelementptr inbounds nuw %"struct.std::_Vector_base.55", ptr %5, i32 0, i32 0
  %7 = getelementptr inbounds nuw %"struct.std::_Vector_base<pull_coord_work_t, std::allocator<pull_coord_work_t>>::_Vector_impl_data", ptr %6, i32 0, i32 0
  %8 = load ptr, ptr %7, align 8, !tbaa !241
  %9 = load i64, ptr %4, align 8, !tbaa !19
  %10 = getelementptr inbounds nuw %struct.pull_coord_work_t, ptr %8, i64 %9
  ret ptr %10
}

; Function Attrs: mustprogress uwtable
define noundef double @_Z20get_pull_coord_valueP6pull_tiRK5t_pbcd(ptr noundef %0, i32 noundef %1, ptr noundef nonnull align 4 dereferenceable(384) %2, double noundef %3) #6 {
  %5 = alloca ptr, align 8
  %6 = alloca i32, align 4
  %7 = alloca ptr, align 8
  %8 = alloca double, align 8
  store ptr %0, ptr %5, align 8, !tbaa !214
  store i32 %1, ptr %6, align 4, !tbaa !38
  store ptr %2, ptr %7, align 8, !tbaa !201
  store double %3, ptr %8, align 8, !tbaa !93
  %9 = load ptr, ptr %5, align 8, !tbaa !214
  %10 = load ptr, ptr %5, align 8, !tbaa !214
  %11 = getelementptr inbounds nuw %struct.pull_t, ptr %10, i32 0, i32 13
  %12 = load i32, ptr %6, align 4, !tbaa !38
  %13 = sext i32 %12 to i64
  %14 = call noundef nonnull align 8 dereferenceable(488) ptr @_ZNSt6vectorI17pull_coord_work_tSaIS0_EEixEm(ptr noundef nonnull align 8 dereferenceable(24) %11, i64 noundef %13) #3
  %15 = load ptr, ptr %7, align 8, !tbaa !201
  %16 = load double, ptr %8, align 8, !tbaa !93
  call void @_ZL23get_pull_coord_distanceRK6pull_tP17pull_coord_work_tRK5t_pbcd(ptr noundef nonnull align 8 dereferenceable(340) %9, ptr noundef %14, ptr noundef nonnull align 4 dereferenceable(384) %15, double noundef %16)
  %17 = load ptr, ptr %5, align 8, !tbaa !214
  %18 = getelementptr inbounds nuw %struct.pull_t, ptr %17, i32 0, i32 13
  %19 = load i32, ptr %6, align 4, !tbaa !38
  %20 = sext i32 %19 to i64
  %21 = call noundef nonnull align 8 dereferenceable(488) ptr @_ZNSt6vectorI17pull_coord_work_tSaIS0_EEixEm(ptr noundef nonnull align 8 dereferenceable(24) %18, i64 noundef %20) #3
  %22 = getelementptr inbounds nuw %struct.pull_coord_work_t, ptr %21, i32 0, i32 3
  %23 = getelementptr inbounds nuw %struct.PullCoordSpatialData, ptr %22, i32 0, i32 9
  %24 = load double, ptr %23, align 8, !tbaa !216
  ret double %24
}