; Function Attrs: mustprogress uwtable
define noundef double @_Z20get_pull_coord_valueP6pull_tiRK5t_pbcd(ptr noundef nonnull readonly captures(none) %0, i32 noundef %1, ptr noundef nonnull align 4 dereferenceable(384) %2, double noundef %3) local_unnamed_addr #4 {
  %5 = getelementptr inbounds nuw i8, ptr %0, i64 128
  %6 = sext i32 %1 to i64
  %7 = load ptr, ptr %5, align 8, !tbaa !86
  %8 = getelementptr inbounds nuw %struct.pull_coord_work_t, ptr %7, i64 %6
  tail call fastcc void @_ZL23get_pull_coord_distanceRK6pull_tP17pull_coord_work_tRK5t_pbcd(ptr noundef nonnull align 8 dereferenceable(340) %0, ptr noundef %8, ptr noundef nonnull align 4 dereferenceable(384) %2, double noundef %3)
  %9 = load ptr, ptr %5, align 8, !tbaa !86
  %10 = getelementptr inbounds nuw %struct.pull_coord_work_t, ptr %9, i64 %6, i32 3, i32 9
  %11 = load double, ptr %10, align 8, !tbaa !89
  ret double %11
}